; Function Attrs: nounwind uwtable
define ptr @l_Lean_Server_Completion_dotCompletion(ptr noundef %0, ptr noundef %1, ptr noundef %2, ptr noundef %3, ptr noundef %4, ptr noundef %5) local_unnamed_addr #0 {
  %7 = getelementptr inbounds nuw i8, ptr %3, i64 16
  %8 = load ptr, ptr %7, align 8, !tbaa !4
  %9 = ptrtoint ptr %8 to i64
  %10 = and i64 %9, 1
  %.not = icmp eq i64 %10, 0
  br i1 %.not, label %11, label %lean_inc.exit19

11:                                               ; preds = %6
  %.val.i = load i32, ptr %8, align 4, !tbaa !8
  %12 = icmp sgt i32 %.val.i, 0
  br i1 %12, label %13, label %15, !prof !11

13:                                               ; preds = %11
  %14 = add nuw i32 %.val.i, 1
  store i32 %14, ptr %8, align 4, !tbaa !8
  br label %lean_inc.exit19

15:                                               ; preds = %11
  %.not.i20 = icmp eq i32 %.val.i, 0
  br i1 %.not.i20, label %lean_inc.exit19, label %16

16:                                               ; preds = %15
  tail call void @lean_inc_ref_cold(ptr noundef nonnull %8) #5
  br label %lean_inc.exit19

lean_inc.exit19:                                  ; preds = %16, %15, %13, %6
  %17 = load ptr, ptr @l_Lean_Server_Completion_dotCompletion___closed__1, align 8, !tbaa !4
  %18 = getelementptr inbounds nuw i8, ptr %3, i64 32
  %19 = load ptr, ptr %18, align 8, !tbaa !4
  %20 = ptrtoint ptr %19 to i64
  %21 = and i64 %20, 1
  %.not25 = icmp eq i64 %21, 0
  br i1 %.not25, label %22, label %lean_inc.exit

22:                                               ; preds = %lean_inc.exit19
  %.val.i21 = load i32, ptr %19, align 4, !tbaa !8
  %23 = icmp sgt i32 %.val.i21, 0
  br i1 %23, label %24, label %26, !prof !11

24:                                               ; preds = %22
  %25 = add nuw i32 %.val.i21, 1
  store i32 %25, ptr %19, align 4, !tbaa !8
  br label %lean_inc.exit

26:                                               ; preds = %22
  %.not.i22 = icmp eq i32 %.val.i21, 0
  br i1 %.not.i22, label %lean_inc.exit, label %27

27:                                               ; preds = %26
  tail call void @lean_inc_ref_cold(ptr noundef nonnull %19) #5
  br label %lean_inc.exit

lean_inc.exit:                                    ; preds = %27, %26, %24, %lean_inc.exit19
  %28 = ptrtoint ptr %3 to i64
  %29 = and i64 %28, 1
  %.not26 = icmp eq i64 %29, 0
  br i1 %.not26, label %30, label %lean_dec.exit

30:                                               ; preds = %lean_inc.exit
  %31 = load i32, ptr %3, align 4, !tbaa !8
  %32 = icmp sgt i32 %31, 1
  br i1 %32, label %33, label %35, !prof !11

33:                                               ; preds = %30
  %34 = add nsw i32 %31, -1
  store i32 %34, ptr %3, align 4, !tbaa !8
  br label %lean_dec.exit

35:                                               ; preds = %30
  %.not.i = icmp eq i32 %31, 0
  br i1 %.not.i, label %lean_dec.exit, label %36

36:                                               ; preds = %35
  tail call void @lean_dec_ref_cold(ptr noundef nonnull %3) #5
  br label %lean_dec.exit

lean_dec.exit:                                    ; preds = %36, %35, %33, %lean_inc.exit
  tail call void @lean_inc_heartbeat() #5
  %37 = tail call noalias ptr @mi_malloc_small(i64 noundef 32) #5
  %38 = icmp eq ptr %37, null
  br i1 %38, label %39, label %lean_alloc_closure.exit

39:                                               ; preds = %lean_dec.exit
  tail call void @lean_internal_panic_out_of_memory() #6
  unreachable

lean_alloc_closure.exit:                          ; preds = %lean_dec.exit
  %40 = getelementptr inbounds nuw i8, ptr %37, i64 4
  store i32 1, ptr %37, align 4, !tbaa !8
  store i32 -184549344, ptr %40, align 4
  %41 = getelementptr inbounds nuw i8, ptr %37, i64 8
  store ptr @l_Lean_Server_Completion_dotCompletion___lambda__6___boxed, ptr %41, align 8, !tbaa !4
  %42 = getelementptr inbounds nuw i8, ptr %37, i64 16
  store i16 9, ptr %42, align 8, !tbaa !16
  %43 = getelementptr inbounds nuw i8, ptr %37, i64 18
  store i16 1, ptr %43, align 2, !tbaa !16
  %44 = getelementptr inbounds nuw i8, ptr %37, i64 24
  store ptr %19, ptr %44, align 8, !tbaa !4
  tail call void @lean_inc_heartbeat() #5
  %45 = tail call noalias ptr @mi_malloc_small(i64 noundef 40) #5
  %46 = icmp eq ptr %45, null
  br i1 %46, label %47, label %lean_alloc_closure.exit24

47:                                               ; preds = %lean_alloc_closure.exit
  tail call void @lean_internal_panic_out_of_memory() #6
  unreachable

lean_alloc_closure.exit24:                        ; preds = %lean_alloc_closure.exit
  %48 = getelementptr inbounds nuw i8, ptr %45, i64 4
  store i32 1, ptr %45, align 4, !tbaa !8
  store i32 -184549336, ptr %48, align 4
  %49 = getelementptr inbounds nuw i8, ptr %45, i64 8
  store ptr @l_ReaderT_bind___at_Lean_Server_Completion_dotCompletion___spec__3___rarg, ptr %49, align 8, !tbaa !4
  %50 = getelementptr inbounds nuw i8, ptr %45, i64 16
  store i16 10, ptr %50, align 8, !tbaa !16
  %51 = getelementptr inbounds nuw i8, ptr %45, i64 18
  store i16 2, ptr %51, align 2, !tbaa !16
  %52 = getelementptr inbounds nuw i8, ptr %45, i64 24
  store ptr %37, ptr %52, align 8, !tbaa !4
  %53 = getelementptr inbounds nuw i8, ptr %45, i64 32
  store ptr %17, ptr %53, align 8, !tbaa !4
  %54 = tail call ptr @l___private_Lean_Server_Completion_CompletionCollectors_0__Lean_Server_Completion_runM(ptr noundef %0, ptr noundef %1, ptr noundef %2, ptr noundef %8, ptr noundef nonnull %45, ptr noundef %4, ptr noundef %5)
  ret ptr %54
}